; Function Attrs: nounwind uwtable
define ptr @l_Lake_Toml_mkUnexpectedCharError___boxed(ptr noundef %0, ptr noundef %1, ptr noundef %2, ptr noundef %3) local_unnamed_addr #1 {
  %5 = ptrtoint ptr %1 to i64
  %6 = lshr i64 %5, 1
  %7 = trunc i64 %6 to i32
  %8 = and i64 %5, 1
  %.not = icmp eq i64 %8, 0
  br i1 %.not, label %9, label %lean_dec.exit8

9:                                                ; preds = %4
  %10 = load i32, ptr %1, align 4, !tbaa !4
  %11 = icmp sgt i32 %10, 1
  br i1 %11, label %12, label %14, !prof !9

12:                                               ; preds = %9
  %13 = add nsw i32 %10, -1
  store i32 %13, ptr %1, align 4, !tbaa !4
  br label %lean_dec.exit8

14:                                               ; preds = %9
  %.not.i = icmp eq i32 %10, 0
  br i1 %.not.i, label %lean_dec.exit8, label %15

15:                                               ; preds = %14
  tail call void @lean_dec_ref_cold(ptr noundef nonnull %1) #4
  br label %lean_dec.exit8

lean_dec.exit8:                                   ; preds = %15, %14, %12, %4
  %16 = ptrtoint ptr %3 to i64
  %17 = and i64 %16, 1
  %.not12 = icmp eq i64 %17, 0
  br i1 %.not12, label %18, label %lean_dec.exit

18:                                               ; preds = %lean_dec.exit8
  %19 = load i32, ptr %3, align 4, !tbaa !4
  %20 = icmp sgt i32 %19, 1
  br i1 %20, label %21, label %23, !prof !9

21:                                               ; preds = %18
  %22 = add nsw i32 %19, -1
  store i32 %22, ptr %3, align 4, !tbaa !4
  br label %lean_dec.exit

23:                                               ; preds = %18
  %.not.i9 = icmp eq i32 %19, 0
  br i1 %.not.i9, label %lean_dec.exit, label %24

24:                                               ; preds = %23
  tail call void @lean_dec_ref_cold(ptr noundef nonnull %3) #4
  br label %lean_dec.exit

lean_dec.exit:                                    ; preds = %24, %23, %21, %lean_dec.exit8
  %25 = load ptr, ptr @l_Lake_Toml_mkUnexpectedCharError___closed__1, align 8, !tbaa !10
  %26 = tail call ptr @lean_string_push(ptr noundef %25, i32 noundef %7) #4
  %27 = load ptr, ptr @l_Lake_Toml_mkUnexpectedCharError___closed__2, align 8, !tbaa !10
  %28 = tail call ptr @lean_string_append(ptr noundef %27, ptr noundef %26) #4
  %29 = ptrtoint ptr %26 to i64
  %30 = and i64 %29, 1
  %.not.i11 = icmp eq i64 %30, 0
  br i1 %.not.i11, label %31, label %l_Lake_Toml_mkUnexpectedCharError.exit

31:                                               ; preds = %lean_dec.exit
  %32 = load i32, ptr %26, align 4, !tbaa !4
  %33 = icmp sgt i32 %32, 1
  br i1 %33, label %34, label %36, !prof !9

34:                                               ; preds = %31
  %35 = add nsw i32 %32, -1
  store i32 %35, ptr %26, align 4, !tbaa !4
  br label %l_Lake_Toml_mkUnexpectedCharError.exit

36:                                               ; preds = %31
  %.not.i.i = icmp eq i32 %32, 0
  br i1 %.not.i.i, label %l_Lake_Toml_mkUnexpectedCharError.exit, label %37

37:                                               ; preds = %36
  tail call void @lean_dec_ref_cold(ptr noundef nonnull %26) #4
  br label %l_Lake_Toml_mkUnexpectedCharError.exit

l_Lake_Toml_mkUnexpectedCharError.exit:           ; preds = %lean_dec.exit, %34, %36, %37
  %38 = lshr i64 %16, 1
  %39 = trunc i64 %38 to i8
  %40 = load ptr, ptr @l_Lake_Toml_mkUnexpectedCharError___closed__3, align 8, !tbaa !10
  %41 = tail call ptr @lean_string_append(ptr noundef %28, ptr noundef %40) #4
  %42 = tail call ptr @l_Lean_Parser_ParserState_mkUnexpectedError(ptr noundef %0, ptr noundef %41, ptr noundef %2, i8 noundef zeroext %39) #4
  ret ptr %42
}